target datalayout = "e-m:e-p270:32:32-p271:32:32-p272:64:64-i64:64-i128:128-f80:128-n8:16:32:64-S128"
target triple = "x86_64-pc-linux-gnu"

%struct.strbuf = type { i64, i64, ptr }
%struct.option = type { i32, i32, ptr, ptr, ptr, ptr, i32, ptr, i64, ptr, i64, ptr }
%struct.repository = type { ptr, ptr, ptr, ptr, ptr, %struct.strmap, %struct.strmap, %struct.repo_path_cache, ptr, ptr, ptr, ptr, %struct.repo_settings, ptr, ptr, ptr, ptr, ptr, ptr, i32, i32, i32, ptr, ptr, i32, i32, i8 }
%struct.strmap = type { %struct.hashmap, ptr, i8 }
%struct.hashmap = type { ptr, ptr, ptr, i32, i32, i32, i32, i8 }
%struct.repo_path_cache = type { ptr, ptr, ptr, ptr, ptr, ptr, ptr }
%struct.repo_settings = type { i32, i32, i32, i32, i32, i32, i32, i32, i32, i32, i32, i32, ptr, i32, i32, i32, i32, i32, i32, i32, i64, i64, i64 }

@.str.8 = private unnamed_addr constant [1 x i8] zeroinitializer, align 1
@git_gettext_enabled = external global i32, align 4
@the_repository = external global ptr, align 8
@.str.39 = private unnamed_addr constant [25 x i8] c"could not switch to '%s'\00", align 1
@.str.138 = private unnamed_addr constant [18 x i8] c"fsmonitor--daemon\00", align 1
@__const.cmd_delete.usage = private unnamed_addr constant [2 x ptr] [ptr @.str.171, ptr null], align 16
@__const.cmd_delete.enlistment = private unnamed_addr constant %struct.strbuf { i64 0, i64 0, ptr @strbuf_slopbuf }, align 8
@.str.172 = private unnamed_addr constant [45 x i8] c"refusing to delete current working directory\00", align 1
@__const.delete_enlistment.parent = private unnamed_addr constant %struct.strbuf { i64 0, i64 0, ptr @strbuf_slopbuf }, align 8
@.str.173 = private unnamed_addr constant [32 x i8] c"failed to unregister repository\00", align 1
@.str.174 = private unnamed_addr constant [36 x i8] c"failed to stop the FSMonitor daemon\00", align 1
@.str.175 = private unnamed_addr constant [38 x i8] c"failed to delete enlistment directory\00", align 1
@.str.176 = private unnamed_addr constant [5 x i8] c"stop\00", align 1

; Function Attrs: inlinehint nounwind uwtable
define internal i32 @git_is_dir_sep(i32 noundef %0) #5 {
  %2 = alloca i32, align 4
  store i32 %0, ptr %2, align 4, !tbaa !11
  %3 = load i32, ptr %2, align 4, !tbaa !11
  %4 = icmp eq i32 %3, 47
  %5 = zext i1 %4 to i32
  ret i32 %5
}

; Function Attrs: nounwind uwtable
define internal i32 @stop_fsmonitor_daemon() #0 {
  %1 = alloca i32, align 4
  %2 = call i32 @fsmonitor_ipc__get_state()
  %3 = icmp eq i32 %2, 0
  br i1 %3, label %4, label %6

4:                                                ; preds = %0
  %5 = call i32 (ptr, ...) @run_git(ptr noundef @.str.138, ptr noundef @.str.176, ptr noundef null)
  store i32 %5, ptr %1, align 4
  br label %7

6:                                                ; preds = %0
  store i32 0, ptr %1, align 4
  br label %7

7:                                                ; preds = %6, %4
  %8 = load i32, ptr %1, align 4
  ret i32 %8
}

; Function Attrs: nounwind uwtable
define internal i32 @have_fsmonitor_support() #0 {
  %1 = call i32 @fsmonitor_ipc__is_supported()
  %2 = icmp ne i32 %1, 0
  br i1 %2, label %3, label %7

3:                                                ; preds = %0
  %4 = load ptr, ptr @the_repository, align 8, !tbaa !43
  %5 = call i32 @fsm_settings__get_reason(ptr noundef %4)
  %6 = icmp eq i32 %5, 1
  br label %7

7:                                                ; preds = %3, %0
  %8 = phi i1 [ false, %0 ], [ %6, %3 ]
  %9 = zext i1 %8 to i32
  ret i32 %9
}

; Function Attrs: inlinehint nounwind uwtable
define internal ptr @git_find_last_dir_sep(ptr noundef %0) #5 {
  %2 = alloca ptr, align 8
  store ptr %0, ptr %2, align 8, !tbaa !4
  %3 = load ptr, ptr %2, align 8, !tbaa !4
  %4 = call ptr @strrchr(ptr noundef %3, i32 noundef 47) #13
  ret ptr %4
}

; Function Attrs: inlinehint nounwind uwtable
define internal i32 @git_offset_1st_component(ptr noundef %0) #5 {
  %2 = alloca ptr, align 8
  store ptr %0, ptr %2, align 8, !tbaa !4
  %3 = load ptr, ptr %2, align 8, !tbaa !4
  %4 = getelementptr inbounds i8, ptr %3, i64 0
  %5 = load i8, ptr %4, align 1, !tbaa !15
  %6 = sext i8 %5 to i32
  %7 = call i32 @git_is_dir_sep(i32 noundef %6)
  ret i32 %7
}

; Function Attrs: nounwind uwtable
define internal i32 @delete_enlistment(ptr noundef %0) #0 {
  %2 = alloca i32, align 4
  %3 = alloca ptr, align 8
  %4 = alloca %struct.strbuf, align 8
  %5 = alloca i64, align 8
  %6 = alloca ptr, align 8
  %7 = alloca i32, align 4
  %8 = alloca i32, align 4
  store ptr %0, ptr %3, align 8, !tbaa !26
  call void @llvm.lifetime.start.p0(i64 24, ptr %4) #12
  call void @llvm.memcpy.p0.p0.i64(ptr align 8 %4, ptr align 8 @__const.delete_enlistment.parent, i64 24, i1 false)
  call void @llvm.lifetime.start.p0(i64 8, ptr %5) #12
  call void @llvm.lifetime.start.p0(i64 8, ptr %6) #12
  %9 = call i32 @unregister_dir()
  %10 = icmp ne i32 %9, 0
  br i1 %10, label %11, label %15

11:                                               ; preds = %1
  %12 = call ptr @_(ptr noundef @.str.173)
  %13 = call i32 (ptr, ...) @error(ptr noundef %12)
  %14 = call i32 @const_error()
  store i32 %14, ptr %2, align 4
  store i32 1, ptr %7, align 4
  br label %74

15:                                               ; preds = %1
  %16 = load ptr, ptr %3, align 8, !tbaa !26
  %17 = getelementptr inbounds nuw %struct.strbuf, ptr %16, i32 0, i32 2
  %18 = load ptr, ptr %17, align 8, !tbaa !23
  %19 = call i32 @git_offset_1st_component(ptr noundef %18)
  %20 = sext i32 %19 to i64
  store i64 %20, ptr %5, align 8, !tbaa !51
  %21 = load ptr, ptr %3, align 8, !tbaa !26
  %22 = getelementptr inbounds nuw %struct.strbuf, ptr %21, i32 0, i32 2
  %23 = load ptr, ptr %22, align 8, !tbaa !23
  %24 = load i64, ptr %5, align 8, !tbaa !51
  %25 = getelementptr inbounds nuw i8, ptr %23, i64 %24
  %26 = call ptr @git_find_last_dir_sep(ptr noundef %25)
  store ptr %26, ptr %6, align 8, !tbaa !4
  %27 = load ptr, ptr %3, align 8, !tbaa !26
  %28 = getelementptr inbounds nuw %struct.strbuf, ptr %27, i32 0, i32 2
  %29 = load ptr, ptr %28, align 8, !tbaa !23
  %30 = load ptr, ptr %6, align 8, !tbaa !4
  %31 = icmp ne ptr %30, null
  br i1 %31, label %32, label %40

32:                                               ; preds = %15
  %33 = load ptr, ptr %6, align 8, !tbaa !4
  %34 = load ptr, ptr %3, align 8, !tbaa !26
  %35 = getelementptr inbounds nuw %struct.strbuf, ptr %34, i32 0, i32 2
  %36 = load ptr, ptr %35, align 8, !tbaa !23
  %37 = ptrtoint ptr %33 to i64
  %38 = ptrtoint ptr %36 to i64
  %39 = sub i64 %37, %38
  br label %42

40:                                               ; preds = %15
  %41 = load i64, ptr %5, align 8, !tbaa !51
  br label %42

42:                                               ; preds = %40, %32
  %43 = phi i64 [ %39, %32 ], [ %41, %40 ]
  call void @strbuf_add(ptr noundef %4, ptr noundef %29, i64 noundef %43)
  %44 = getelementptr inbounds nuw %struct.strbuf, ptr %4, i32 0, i32 2
  %45 = load ptr, ptr %44, align 8, !tbaa !23
  %46 = call i32 @chdir(ptr noundef %45) #12
  %47 = icmp slt i32 %46, 0
  br i1 %47, label %48, label %55

48:                                               ; preds = %42
  call void @llvm.lifetime.start.p0(i64 4, ptr %8) #12
  %49 = call ptr @_(ptr noundef @.str.39)
  %50 = getelementptr inbounds nuw %struct.strbuf, ptr %4, i32 0, i32 2
  %51 = load ptr, ptr %50, align 8, !tbaa !23
  %52 = call i32 (ptr, ...) @error_errno(ptr noundef %49, ptr noundef %51)
  %53 = call i32 @const_error()
  store i32 %53, ptr %8, align 4, !tbaa !11
  call void @strbuf_release(ptr noundef %4)
  %54 = load i32, ptr %8, align 4, !tbaa !11
  store i32 %54, ptr %2, align 4
  store i32 1, ptr %7, align 4
  call void @llvm.lifetime.end.p0(i64 4, ptr %8) #12
  br label %74

55:                                               ; preds = %42
  call void @strbuf_release(ptr noundef %4)
  %56 = call i32 @have_fsmonitor_support()
  %57 = icmp ne i32 %56, 0
  br i1 %57, label %58, label %65

58:                                               ; preds = %55
  %59 = call i32 @stop_fsmonitor_daemon()
  %60 = icmp ne i32 %59, 0
  br i1 %60, label %61, label %65

61:                                               ; preds = %58
  %62 = call ptr @_(ptr noundef @.str.174)
  %63 = call i32 (ptr, ...) @error(ptr noundef %62)
  %64 = call i32 @const_error()
  store i32 %64, ptr %2, align 4
  store i32 1, ptr %7, align 4
  br label %74

65:                                               ; preds = %58, %55
  %66 = load ptr, ptr %3, align 8, !tbaa !26
  %67 = call i32 @remove_dir_recursively(ptr noundef %66, i32 noundef 0)
  %68 = icmp ne i32 %67, 0
  br i1 %68, label %69, label %73

69:                                               ; preds = %65
  %70 = call ptr @_(ptr noundef @.str.175)
  %71 = call i32 (ptr, ...) @error(ptr noundef %70)
  %72 = call i32 @const_error()
  store i32 %72, ptr %2, align 4
  store i32 1, ptr %7, align 4
  br label %74

73:                                               ; preds = %65
  store i32 0, ptr %2, align 4
  store i32 1, ptr %7, align 4
  br label %74

74:                                               ; preds = %73, %69, %61, %48, %11
  call void @llvm.lifetime.end.p0(i64 8, ptr %6) #12
  call void @llvm.lifetime.end.p0(i64 8, ptr %5) #12
  call void @llvm.lifetime.end.p0(i64 24, ptr %4) #12
  %75 = load i32, ptr %2, align 4
  ret i32 %75
}

; Function Attrs: inlinehint nounwind uwtable
define internal i32 @const_error() #5 {
  ret i32 -1
}

; Function Attrs: inlinehint nounwind uwtable
define internal ptr @_(ptr noundef %0) #5 {
  %2 = alloca ptr, align 8
  %3 = alloca ptr, align 8
  store ptr %0, ptr %3, align 8, !tbaa !4
  %4 = load ptr, ptr %3, align 8, !tbaa !4
  %5 = load i8, ptr %4, align 1, !tbaa !15
  %6 = icmp ne i8 %5, 0
  br i1 %6, label %8, label %7

7:                                                ; preds = %1
  store ptr @.str.8, ptr %2, align 8
  br label %16

8:                                                ; preds = %1
  %9 = load i32, ptr @git_gettext_enabled, align 4, !tbaa !11
  %10 = icmp ne i32 %9, 0
  br i1 %10, label %13, label %11

11:                                               ; preds = %8
  %12 = load ptr, ptr %3, align 8, !tbaa !4
  store ptr %12, ptr %2, align 8
  br label %16

13:                                               ; preds = %8
  %14 = load ptr, ptr %3, align 8, !tbaa !4
  %15 = call ptr @dcgettext(ptr noundef null, ptr noundef %14, i32 noundef 5) #12
  store ptr %15, ptr %2, align 8
  br label %16

16:                                               ; preds = %13, %11, %7
  %17 = load ptr, ptr %2, align 8
  ret ptr %17
}

; Function Attrs: nounwind uwtable
define internal i32 @cmd_delete(i32 noundef %0, ptr noundef %1) #0 {
  %3 = alloca i32, align 4
  %4 = alloca ptr, align 8
  %5 = alloca ptr, align 8
  %6 = alloca [1 x %struct.option], align 16
  %7 = alloca [2 x ptr], align 16
  %8 = alloca %struct.strbuf, align 8
  %9 = alloca i32, align 4
  store i32 %0, ptr %3, align 4, !tbaa !11
  store ptr %1, ptr %4, align 8, !tbaa !13
  call void @llvm.lifetime.start.p0(i64 8, ptr %5) #12
  %10 = call ptr @xgetcwd()
  store ptr %10, ptr %5, align 8, !tbaa !4
  call void @llvm.lifetime.start.p0(i64 88, ptr %6) #12
  call void @llvm.memset.p0.i64(ptr align 16 %6, i8 0, i64 88, i1 false)
  call void @llvm.lifetime.start.p0(i64 16, ptr %7) #12
  call void @llvm.memcpy.p0.p0.i64(ptr align 16 %7, ptr align 16 @__const.cmd_delete.usage, i64 16, i1 false)
  call void @llvm.lifetime.start.p0(i64 24, ptr %8) #12
  call void @llvm.memcpy.p0.p0.i64(ptr align 8 %8, ptr align 8 @__const.cmd_delete.enlistment, i64 24, i1 false)
  call void @llvm.lifetime.start.p0(i64 4, ptr %9) #12
  store i32 0, ptr %9, align 4, !tbaa !11
  %11 = load i32, ptr %3, align 4, !tbaa !11
  %12 = load ptr, ptr %4, align 8, !tbaa !13
  %13 = getelementptr inbounds [1 x %struct.option], ptr %6, i64 0, i64 0
  %14 = getelementptr inbounds [2 x ptr], ptr %7, i64 0, i64 0
  %15 = call i32 @parse_options(i32 noundef %11, ptr noundef %12, ptr noundef null, ptr noundef %13, ptr noundef %14, i32 noundef 0)
  store i32 %15, ptr %3, align 4, !tbaa !11
  %16 = load i32, ptr %3, align 4, !tbaa !11
  %17 = icmp ne i32 %16, 1
  br i1 %17, label %18, label %21

18:                                               ; preds = %2
  %19 = getelementptr inbounds [2 x ptr], ptr %7, i64 0, i64 0
  %20 = getelementptr inbounds [1 x %struct.option], ptr %6, i64 0, i64 0
  call void @usage_with_options(ptr noundef %19, ptr noundef %20) #11
  unreachable

21:                                               ; preds = %2
  %22 = load i32, ptr %3, align 4, !tbaa !11
  %23 = load ptr, ptr %4, align 8, !tbaa !13
  %24 = getelementptr inbounds [2 x ptr], ptr %7, i64 0, i64 0
  %25 = getelementptr inbounds [1 x %struct.option], ptr %6, i64 0, i64 0
  call void @setup_enlistment_directory(i32 noundef %22, ptr noundef %23, ptr noundef %24, ptr noundef %25, ptr noundef %8)
  %26 = load ptr, ptr %5, align 8, !tbaa !4
  %27 = getelementptr inbounds nuw %struct.strbuf, ptr %8, i32 0, i32 2
  %28 = load ptr, ptr %27, align 8, !tbaa !23
  %29 = call i32 @dir_inside_of(ptr noundef %26, ptr noundef %28)
  %30 = icmp sge i32 %29, 0
  br i1 %30, label %31, label %35

31:                                               ; preds = %21
  %32 = call ptr @_(ptr noundef @.str.172)
  %33 = call i32 (ptr, ...) @error(ptr noundef %32)
  %34 = call i32 @const_error()
  store i32 %34, ptr %9, align 4, !tbaa !11
  br label %40

35:                                               ; preds = %21
  %36 = load ptr, ptr @the_repository, align 8, !tbaa !43
  %37 = getelementptr inbounds nuw %struct.repository, ptr %36, i32 0, i32 2
  %38 = load ptr, ptr %37, align 8, !tbaa !59
  call void @close_object_store(ptr noundef %38)
  %39 = call i32 @delete_enlistment(ptr noundef %8)
  store i32 %39, ptr %9, align 4, !tbaa !11
  br label %40

40:                                               ; preds = %35, %31
  call void @strbuf_release(ptr noundef %8)
  %41 = load ptr, ptr %5, align 8, !tbaa !4
  call void @free(ptr noundef %41) #12
  %42 = load i32, ptr %9, align 4, !tbaa !11
  call void @llvm.lifetime.end.p0(i64 4, ptr %9) #12
  call void @llvm.lifetime.end.p0(i64 24, ptr %8) #12
  call void @llvm.lifetime.end.p0(i64 16, ptr %7) #12
  call void @llvm.lifetime.end.p0(i64 88, ptr %6) #12
  call void @llvm.lifetime.end.p0(i64 8, ptr %5) #12
  ret i32 %42
}