; Function Attrs: nounwind uwtable
define internal range(i32 -1, 1) i32 @cmd_delete(i32 noundef %0, ptr noundef %1) #2 {
  %3 = alloca %struct.strbuf, align 8
  %4 = alloca [1 x %struct.option], align 16
  %5 = alloca [2 x ptr], align 16
  %6 = alloca %struct.strbuf, align 8
  %7 = tail call ptr @xgetcwd() #18
  call void @llvm.lifetime.start.p0(i64 88, ptr nonnull %4) #18
  call void @llvm.memset.p0.i64(ptr noundef nonnull align 16 dereferenceable(88) %4, i8 0, i64 88, i1 false)
  call void @llvm.lifetime.start.p0(i64 16, ptr nonnull %5) #18
  call void @llvm.memcpy.p0.p0.i64(ptr noundef nonnull align 16 dereferenceable(16) %5, ptr noundef nonnull align 16 dereferenceable(16) @__const.cmd_delete.usage, i64 16, i1 false)
  call void @llvm.lifetime.start.p0(i64 24, ptr nonnull %6) #18
  call void @llvm.memcpy.p0.p0.i64(ptr noundef nonnull align 8 dereferenceable(24) %6, ptr noundef nonnull align 8 dereferenceable(24) @__const.cmd_diagnose.diagnostics_root, i64 24, i1 false)
  %8 = call i32 @parse_options(i32 noundef %0, ptr noundef %1, ptr noundef null, ptr noundef nonnull %4, ptr noundef nonnull %5, i32 noundef 0) #18
  %.not = icmp eq i32 %8, 1
  br i1 %.not, label %10, label %9

9:                                                ; preds = %2
  call void @usage_with_options(ptr noundef nonnull %5, ptr noundef nonnull %4) #17
  unreachable

10:                                               ; preds = %2
  call fastcc void @setup_enlistment_directory(i32 noundef 1, ptr noundef %1, ptr noundef %5, ptr noundef %4, ptr noundef nonnull %6)
  %11 = getelementptr inbounds nuw i8, ptr %6, i64 16
  %12 = load ptr, ptr %11, align 8, !tbaa !17
  %13 = call i32 @dir_inside_of(ptr noundef %7, ptr noundef %12) #18
  %14 = icmp sgt i32 %13, -1
  br i1 %14, label %15, label %20

15:                                               ; preds = %10
  %16 = load i32, ptr @git_gettext_enabled, align 4, !tbaa !20
  %.not4.i = icmp eq i32 %16, 0
  br i1 %.not4.i, label %_.exit, label %17

17:                                               ; preds = %15
  %18 = call ptr @dcgettext(ptr noundef null, ptr noundef nonnull @.str.172, i32 noundef 5) #18
  br label %_.exit

_.exit:                                           ; preds = %15, %17
  %.0.i = phi ptr [ %18, %17 ], [ @.str.172, %15 ]
  %19 = call i32 (ptr, ...) @error(ptr noundef %.0.i) #18
  br label %69

20:                                               ; preds = %10
  %21 = load ptr, ptr @the_repository, align 8, !tbaa !36
  %22 = getelementptr inbounds nuw i8, ptr %21, i64 16
  %23 = load ptr, ptr %22, align 8, !tbaa !52
  call void @close_object_store(ptr noundef %23) #18
  call void @llvm.lifetime.start.p0(i64 24, ptr nonnull %3) #18
  call void @llvm.memcpy.p0.p0.i64(ptr noundef nonnull align 8 dereferenceable(24) %3, ptr noundef nonnull align 8 dereferenceable(24) @__const.cmd_diagnose.diagnostics_root, i64 24, i1 false)
  %24 = call fastcc i32 @unregister_dir()
  %.not.i = icmp eq i32 %24, 0
  br i1 %.not.i, label %30, label %25

25:                                               ; preds = %20
  %26 = load i32, ptr @git_gettext_enabled, align 4, !tbaa !20
  %.not4.i.i = icmp eq i32 %26, 0
  br i1 %.not4.i.i, label %_.exit.i, label %27

27:                                               ; preds = %25
  %28 = call ptr @dcgettext(ptr noundef null, ptr noundef nonnull @.str.173, i32 noundef 5) #18
  br label %_.exit.i

_.exit.i:                                         ; preds = %27, %25
  %.0.i.i = phi ptr [ %28, %27 ], [ @.str.173, %25 ]
  %29 = call i32 (ptr, ...) @error(ptr noundef %.0.i.i) #18
  br label %delete_enlistment.exit

30:                                               ; preds = %20
  %31 = load ptr, ptr %11, align 8, !tbaa !17
  %.val.i = load i8, ptr %31, align 1, !tbaa !9
  %32 = icmp eq i8 %.val.i, 47
  %33 = zext i1 %32 to i64
  %34 = getelementptr inbounds nuw i8, ptr %31, i64 %33
  %35 = call ptr @strrchr(ptr noundef nonnull readonly dereferenceable(1) %34, i32 noundef 47) #19
  %.not11.i = icmp eq ptr %35, null
  %36 = ptrtoint ptr %35 to i64
  %37 = ptrtoint ptr %31 to i64
  %38 = sub i64 %36, %37
  %39 = select i1 %.not11.i, i64 %33, i64 %38
  call void @strbuf_add(ptr noundef nonnull %3, ptr noundef nonnull %31, i64 noundef %39) #18
  %40 = getelementptr inbounds nuw i8, ptr %3, i64 16
  %41 = load ptr, ptr %40, align 8, !tbaa !17
  %42 = call i32 @chdir(ptr noundef %41) #18
  %43 = icmp slt i32 %42, 0
  br i1 %43, label %44, label %50

44:                                               ; preds = %30
  %45 = load i32, ptr @git_gettext_enabled, align 4, !tbaa !20
  %.not4.i15.i = icmp eq i32 %45, 0
  br i1 %.not4.i15.i, label %_.exit17.i, label %46

46:                                               ; preds = %44
  %47 = call ptr @dcgettext(ptr noundef null, ptr noundef nonnull @.str.39, i32 noundef 5) #18
  br label %_.exit17.i

_.exit17.i:                                       ; preds = %46, %44
  %.0.i16.i = phi ptr [ %47, %46 ], [ @.str.39, %44 ]
  %48 = load ptr, ptr %40, align 8, !tbaa !17
  %49 = call i32 (ptr, ...) @error_errno(ptr noundef %.0.i16.i, ptr noundef %48) #18
  call void @strbuf_release(ptr noundef nonnull %3) #18
  br label %delete_enlistment.exit

50:                                               ; preds = %30
  call void @strbuf_release(ptr noundef nonnull %3) #18
  %51 = call i32 @fsmonitor_ipc__is_supported() #18
  %.not.i.i = icmp eq i32 %51, 0
  br i1 %.not.i.i, label %have_fsmonitor_support.exit.thread.i, label %have_fsmonitor_support.exit.i

have_fsmonitor_support.exit.i:                    ; preds = %50
  %52 = load ptr, ptr @the_repository, align 8, !tbaa !36
  %53 = call i32 @fsm_settings__get_reason(ptr noundef %52) #18
  %.not28.i = icmp eq i32 %53, 1
  br i1 %.not28.i, label %54, label %have_fsmonitor_support.exit.thread.i

54:                                               ; preds = %have_fsmonitor_support.exit.i
  %55 = call i32 @fsmonitor_ipc__get_state() #18
  %56 = icmp eq i32 %55, 0
  br i1 %56, label %stop_fsmonitor_daemon.exit.i, label %have_fsmonitor_support.exit.thread.i

stop_fsmonitor_daemon.exit.i:                     ; preds = %54
  %57 = call i32 (ptr, ...) @run_git(ptr noundef nonnull @.str.138, ptr noundef nonnull @.str.176, ptr noundef null)
  %.not13.i = icmp eq i32 %57, 0
  br i1 %.not13.i, label %have_fsmonitor_support.exit.thread.i, label %58

58:                                               ; preds = %stop_fsmonitor_daemon.exit.i
  %59 = load i32, ptr @git_gettext_enabled, align 4, !tbaa !20
  %.not4.i19.i = icmp eq i32 %59, 0
  br i1 %.not4.i19.i, label %_.exit21.i, label %60

60:                                               ; preds = %58
  %61 = call ptr @dcgettext(ptr noundef null, ptr noundef nonnull @.str.174, i32 noundef 5) #18
  br label %_.exit21.i

_.exit21.i:                                       ; preds = %60, %58
  %.0.i20.i = phi ptr [ %61, %60 ], [ @.str.174, %58 ]
  %62 = call i32 (ptr, ...) @error(ptr noundef %.0.i20.i) #18
  br label %delete_enlistment.exit

have_fsmonitor_support.exit.thread.i:             ; preds = %stop_fsmonitor_daemon.exit.i, %54, %have_fsmonitor_support.exit.i, %50
  %63 = call i32 @remove_dir_recursively(ptr noundef nonnull %6, i32 noundef 0) #18
  %.not14.i = icmp eq i32 %63, 0
  br i1 %.not14.i, label %delete_enlistment.exit, label %64

64:                                               ; preds = %have_fsmonitor_support.exit.thread.i
  %65 = load i32, ptr @git_gettext_enabled, align 4, !tbaa !20
  %.not4.i22.i = icmp eq i32 %65, 0
  br i1 %.not4.i22.i, label %_.exit24.i, label %66

66:                                               ; preds = %64
  %67 = call ptr @dcgettext(ptr noundef null, ptr noundef nonnull @.str.175, i32 noundef 5) #18
  br label %_.exit24.i

_.exit24.i:                                       ; preds = %66, %64
  %.0.i23.i = phi ptr [ %67, %66 ], [ @.str.175, %64 ]
  %68 = call i32 (ptr, ...) @error(ptr noundef %.0.i23.i) #18
  br label %delete_enlistment.exit

delete_enlistment.exit:                           ; preds = %_.exit.i, %_.exit17.i, %_.exit21.i, %have_fsmonitor_support.exit.thread.i, %_.exit24.i
  %.0.i8 = phi i32 [ -1, %_.exit.i ], [ -1, %_.exit17.i ], [ -1, %_.exit21.i ], [ -1, %_.exit24.i ], [ 0, %have_fsmonitor_support.exit.thread.i ]
  call void @llvm.lifetime.end.p0(i64 24, ptr nonnull %3) #18
  br label %69

69:                                               ; preds = %delete_enlistment.exit, %_.exit
  %.0 = phi i32 [ -1, %_.exit ], [ %.0.i8, %delete_enlistment.exit ]
  call void @strbuf_release(ptr noundef nonnull %6) #18
  call void @free(ptr noundef %7) #18
  call void @llvm.lifetime.end.p0(i64 24, ptr nonnull %6) #18
  call void @llvm.lifetime.end.p0(i64 16, ptr nonnull %5) #18
  call void @llvm.lifetime.end.p0(i64 88, ptr nonnull %4) #18
  ret i32 %.0
}